(ideluge.core.torrentmanager
TorrentManagerState
p1
(dp2
S'torrents'
p3
(lp4
(ideluge.core.torrentmanager
TorrentState
p5
(dp6
S'max_download_speed'
p7
F-1
sS'move_completed_path'
p8
S'/home/louis/Downloads'
p9
sS'paused'
p10
I00
sS'max_upload_slots'
p11
I-1
sS'prioritize_first_last'
p12
I00
sS'max_connections'
p13
I-1
sS'compact'
p14
I00
sS'queue'
p15
I-1
sS'file_priorities'
p16
(lp17
I4
aI4
asS'filename'
p18
S'Tiny Evil - 01 [Engsub] (September 2018) _ Tiny Evil \xe7\xac\xac\xe4\xb8\x80\xe8\xa9\xb1 \xe5\xb9\xbc\xe6\xb7\xab\xe9\xad\x94\xe3\x83\xbb\xe3\x81\xbf\xe3\x82\x86\xef\xbd\x9e\xe7\x85\x89\xe7\x8d\x84\xe3\x81\xb8\xe8\xaa\x98\xef\xbc\x88\xe3\x81\x84\xe3\x81\x96\xe3\x81\xaa\xef\xbc\x89\xe3\x81\x86\xe8\x85\xb0\xe6\x8c\xaf\xe3\x82\x8a\xef\xbd\x9e.torrent'
p19
sS'max_upload_speed'
p20
F-1
sS'save_path'
p21
S'/home/louis/DelugeTorrent'
p22
sS'time_added'
p23
F1540639488.917331
sS'total_uploaded'
p24
I1212272
sS'torrent_id'
p25
S'064664d2d3749522097d8944b85aad379626b12d'
p26
sS'auto_managed'
p27
I01
sS'stop_at_ratio'
p28
I00
sS'move_completed'
p29
I00
sS'trackers'
p30
(lp31
(dp32
S'send_stats'
p33
I01
sS'fails'
p34
I0
sS'verified'
p35
I00
sS'scrape_incomplete'
p36
I-1
sS'min_announce'
p37
NsS'source'
p38
I1
sS'url'
p39
S'http://sukebei.tracker.wf:8888/announce'
p40
sS'last_error'
p41
(dp42
S'category'
p43
S'system'
p44
sS'value'
p45
I0
ssS'fail_limit'
p46
I0
sS'next_announce'
p47
NsS'complete_sent'
p48
I00
sS'scrape_downloaded'
p49
I-1
sS'trackerid'
p50
S''
sS'start_sent'
p51
I00
sS'tier'
p52
I0
sS'scrape_complete'
p53
I-1
sS'message'
p54
S''
sS'updating'
p55
I00
sa(dp56
S'send_stats'
p57
I01
sS'fails'
p58
I0
sS'verified'
p59
I00
sS'scrape_incomplete'
p60
I-1
sS'min_announce'
p61
NsS'source'
p62
I1
sS'url'
p63
S'udp://tracker.coppersurfer.tk:6969/announce'
p64
sS'last_error'
p65
(dp66
S'category'
p67
S'system'
p68
sS'value'
p69
I0
ssS'fail_limit'
p70
I0
sS'next_announce'
p71
NsS'complete_sent'
p72
I00
sS'scrape_downloaded'
p73
I-1
sS'trackerid'
p74
S''
sS'start_sent'
p75
I00
sS'tier'
p76
I1
sS'scrape_complete'
p77
I-1
sS'message'
p78
S''
sS'updating'
p79
I00
sa(dp80
S'send_stats'
p81
I01
sS'fails'
p82
I0
sS'verified'
p83
I00
sS'scrape_incomplete'
p84
I-1
sS'min_announce'
p85
NsS'source'
p86
I1
sS'url'
p87
S'udp://tracker.leechers-paradise.org:6969/announce'
p88
sS'last_error'
p89
(dp90
S'category'
p91
S'system'
p92
sS'value'
p93
I0
ssS'fail_limit'
p94
I0
sS'next_announce'
p95
NsS'complete_sent'
p96
I00
sS'scrape_downloaded'
p97
I-1
sS'trackerid'
p98
S''
sS'start_sent'
p99
I00
sS'tier'
p100
I2
sS'scrape_complete'
p101
I-1
sS'message'
p102
S''
sS'updating'
p103
I00
sa(dp104
S'send_stats'
p105
I01
sS'fails'
p106
I0
sS'verified'
p107
I00
sS'scrape_incomplete'
p108
I-1
sS'min_announce'
p109
NsS'source'
p110
I1
sS'url'
p111
S'udp://tracker.opentrackr.org:1337/announce'
p112
sS'last_error'
p113
(dp114
S'category'
p115
S'system'
p116
sS'value'
p117
I0
ssS'fail_limit'
p118
I0
sS'next_announce'
p119
NsS'complete_sent'
p120
I00
sS'scrape_downloaded'
p121
I-1
sS'trackerid'
p122
S''
sS'start_sent'
p123
I00
sS'tier'
p124
I3
sS'scrape_complete'
p125
I-1
sS'message'
p126
S''
sS'updating'
p127
I00
sa(dp128
S'send_stats'
p129
I01
sS'fails'
p130
I0
sS'verified'
p131
I00
sS'scrape_incomplete'
p132
I-1
sS'min_announce'
p133
NsS'source'
p134
I1
sS'url'
p135
S'udp://shadowshq.yi.org:6969/announce'
p136
sS'last_error'
p137
(dp138
S'category'
p139
S'system'
p140
sS'value'
p141
I0
ssS'fail_limit'
p142
I0
sS'next_announce'
p143
NsS'complete_sent'
p144
I00
sS'scrape_downloaded'
p145
I-1
sS'trackerid'
p146
S''
sS'start_sent'
p147
I00
sS'tier'
p148
I4
sS'scrape_complete'
p149
I-1
sS'message'
p150
S''
sS'updating'
p151
I00
sa(dp152
S'send_stats'
p153
I01
sS'fails'
p154
I0
sS'verified'
p155
I00
sS'scrape_incomplete'
p156
I-1
sS'min_announce'
p157
NsS'source'
p158
I1
sS'url'
p159
S'udp://tracker.pirateparty.gr:6969/announce'
p160
sS'last_error'
p161
(dp162
S'category'
p163
S'system'
p164
sS'value'
p165
I0
ssS'fail_limit'
p166
I0
sS'next_announce'
p167
NsS'complete_sent'
p168
I00
sS'scrape_downloaded'
p169
I-1
sS'trackerid'
p170
S''
sS'start_sent'
p171
I00
sS'tier'
p172
I5
sS'scrape_complete'
p173
I-1
sS'message'
p174
S''
sS'updating'
p175
I00
sa(dp176
S'send_stats'
p177
I01
sS'fails'
p178
I0
sS'verified'
p179
I00
sS'scrape_incomplete'
p180
I-1
sS'min_announce'
p181
NsS'source'
p182
I1
sS'url'
p183
S'udp://eddie4.nl:6969/announce'
p184
sS'last_error'
p185
(dp186
S'category'
p187
S'system'
p188
sS'value'
p189
I0
ssS'fail_limit'
p190
I0
sS'next_announce'
p191
NsS'complete_sent'
p192
I00
sS'scrape_downloaded'
p193
I-1
sS'trackerid'
p194
S''
sS'start_sent'
p195
I00
sS'tier'
p196
I6
sS'scrape_complete'
p197
I-1
sS'message'
p198
S''
sS'updating'
p199
I00
sa(dp200
S'send_stats'
p201
I01
sS'fails'
p202
I0
sS'verified'
p203
I00
sS'scrape_incomplete'
p204
I-1
sS'min_announce'
p205
NsS'source'
p206
I1
sS'url'
p207
S'udp://9.rarbg.me:2750/announce'
p208
sS'last_error'
p209
(dp210
S'category'
p211
S'system'
p212
sS'value'
p213
I0
ssS'fail_limit'
p214
I0
sS'next_announce'
p215
NsS'complete_sent'
p216
I00
sS'scrape_downloaded'
p217
I-1
sS'trackerid'
p218
S''
sS'start_sent'
p219
I00
sS'tier'
p220
I7
sS'scrape_complete'
p221
I-1
sS'message'
p222
S''
sS'updating'
p223
I00
sa(dp224
S'send_stats'
p225
I01
sS'fails'
p226
I0
sS'verified'
p227
I00
sS'scrape_incomplete'
p228
I-1
sS'min_announce'
p229
NsS'source'
p230
I1
sS'url'
p231
S'udp://9.rarbg.to:2800/announce'
p232
sS'last_error'
p233
(dp234
S'category'
p235
S'system'
p236
sS'value'
p237
I0
ssS'fail_limit'
p238
I0
sS'next_announce'
p239
NsS'complete_sent'
p240
I00
sS'scrape_downloaded'
p241
I-1
sS'trackerid'
p242
S''
sS'start_sent'
p243
I00
sS'tier'
p244
I8
sS'scrape_complete'
p245
I-1
sS'message'
p246
S''
sS'updating'
p247
I00
sa(dp248
S'send_stats'
p249
I01
sS'fails'
p250
I0
sS'verified'
p251
I00
sS'scrape_incomplete'
p252
I-1
sS'min_announce'
p253
NsS'source'
p254
I1
sS'url'
p255
S'http://new.220xd.site:80/announce'
p256
sS'last_error'
p257
(dp258
S'category'
p259
S'system'
p260
sS'value'
p261
I0
ssS'fail_limit'
p262
I0
sS'next_announce'
p263
NsS'complete_sent'
p264
I00
sS'scrape_downloaded'
p265
I-1
sS'trackerid'
p266
S''
sS'start_sent'
p267
I00
sS'tier'
p268
I9
sS'scrape_complete'
p269
I-1
sS'message'
p270
S''
sS'updating'
p271
I00
sa(dp272
S'send_stats'
p273
I01
sS'fails'
p274
I0
sS'verified'
p275
I00
sS'scrape_incomplete'
p276
I-1
sS'min_announce'
p277
NsS'source'
p278
I1
sS'url'
p279
S'udp://tracker.coppersurfer.tk:6969/announce'
p280
sS'last_error'
p281
(dp282
S'category'
p283
S'system'
p284
sS'value'
p285
I0
ssS'fail_limit'
p286
I0
sS'next_announce'
p287
NsS'complete_sent'
p288
I00
sS'scrape_downloaded'
p289
I-1
sS'trackerid'
p290
S''
sS'start_sent'
p291
I00
sS'tier'
p292
I10
sS'scrape_complete'
p293
I-1
sS'message'
p294
S''
sS'updating'
p295
I00
sa(dp296
S'send_stats'
p297
I01
sS'fails'
p298
I0
sS'verified'
p299
I00
sS'scrape_incomplete'
p300
I-1
sS'min_announce'
p301
NsS'source'
p302
I1
sS'url'
p303
S'udp://tracker.leechers-paradise.org:6969\r'
p304
sS'last_error'
p305
(dp306
S'category'
p307
S'system'
p308
sS'value'
p309
I0
ssS'fail_limit'
p310
I0
sS'next_announce'
p311
NsS'complete_sent'
p312
I00
sS'scrape_downloaded'
p313
I-1
sS'trackerid'
p314
S''
sS'start_sent'
p315
I00
sS'tier'
p316
I11
sS'scrape_complete'
p317
I-1
sS'message'
p318
S''
sS'updating'
p319
I00
sasS'magnet'
p320
NsS'remove_at_ratio'
p321
I00
sS'stop_ratio'
p322
F2
sS'is_finished'
p323
I01
sbasb.